; Function Attrs: mustprogress nofree norecurse nosync nounwind willreturn memory(read, inaccessiblemem: none) uwtable
define hidden ptr @mbedtls_pk_get_name(ptr noundef readonly %0) local_unnamed_addr #5 {
  %2 = icmp eq ptr %0, null
  br i1 %2, label %9, label %3

3:                                                ; preds = %1
  %4 = load ptr, ptr %0, align 8, !tbaa !3
  %5 = icmp eq ptr %4, null
  br i1 %5, label %9, label %6

6:                                                ; preds = %3
  %7 = getelementptr inbounds nuw i8, ptr %4, i64 8
  %8 = load ptr, ptr %7, align 8, !tbaa !54
  br label %9

9:                                                ; preds = %1, %3, %6
  %.0 = phi ptr [ %8, %6 ], [ @.str, %3 ], [ @.str, %1 ]
  ret ptr %.0
}